target datalayout = "e-m:e-p270:32:32-p271:32:32-p272:64:64-i64:64-i128:128-f80:128-n8:16:32:64-S128"
target triple = "x86_64-unknown-linux-gnu"

%"class.ue2::depth" = type { i32 }
%"struct.std::_Rb_tree_key_compare" = type { %"struct.std::less" }
%"struct.std::less" = type { i8 }
%"struct.std::_Rb_tree_header" = type { %"struct.std::_Rb_tree_node_base", i64 }
%"struct.std::_Rb_tree_node_base" = type { i32, ptr, ptr, ptr }
%"struct.std::_Rb_tree_const_iterator" = type { ptr }
%"struct.ue2::CastleProto" = type { %"class.std::map", %"class.std::unordered_map", i32, i32 }
%"class.std::map" = type { %"class.std::_Rb_tree" }
%"class.std::_Rb_tree" = type { %"struct.std::_Rb_tree<unsigned int, std::pair<const unsigned int, ue2::PureRepeat>, std::_Select1st<std::pair<const unsigned int, ue2::PureRepeat>>, std::less<unsigned int>>::_Rb_tree_impl" }
%"struct.std::_Rb_tree<unsigned int, std::pair<const unsigned int, ue2::PureRepeat>, std::_Select1st<std::pair<const unsigned int, ue2::PureRepeat>>, std::less<unsigned int>>::_Rb_tree_impl" = type { %"struct.std::_Rb_tree_key_compare", %"struct.std::_Rb_tree_header" }
%"class.std::unordered_map" = type { %"class.std::_Hashtable" }
%"class.std::_Hashtable" = type { ptr, i64, %"struct.std::__detail::_Hash_node_base", i64, %"struct.std::__detail::_Prime_rehash_policy", ptr }
%"struct.std::__detail::_Hash_node_base" = type { ptr }
%"struct.std::__detail::_Prime_rehash_policy" = type { float, i64 }
%"struct.std::pair" = type { i32, %"struct.ue2::PureRepeat" }
%"struct.ue2::PureRepeat" = type { %"class.ue2::CharReach", %"struct.ue2::DepthMinMax", %"class.ue2::flat_set" }
%"class.ue2::CharReach" = type { %"class.ue2::bitfield" }
%"class.ue2::bitfield" = type { %"struct.std::array" }
%"struct.std::array" = type { [4 x i64] }
%"struct.ue2::DepthMinMax" = type { %"class.ue2::depth", %"class.ue2::depth" }
%"class.ue2::flat_set" = type { %"class.ue2::flat_detail::flat_base" }
%"class.ue2::flat_detail::flat_base" = type { %"class.std::tuple.42" }
%"class.std::tuple.42" = type { %"struct.std::_Tuple_impl.43" }
%"struct.std::_Tuple_impl.43" = type { %"struct.std::_Head_base.46" }
%"struct.std::_Head_base.46" = type { %"class.boost::container::small_vector" }
%"class.boost::container::small_vector" = type { %"class.boost::container::small_vector_base.base", [4 x i8] }
%"class.boost::container::small_vector_base.base" = type <{ %"class.boost::container::vector", %"union.boost::move_detail::aligned_struct_wrapper" }>
%"class.boost::container::vector" = type { %"struct.boost::container::vector_alloc_holder" }
%"struct.boost::container::vector_alloc_holder" = type { ptr, i64, i64 }
%"union.boost::move_detail::aligned_struct_wrapper" = type { %"struct.boost::move_detail::aligned_struct" }
%"struct.boost::move_detail::aligned_struct" = type { [4 x i8] }
%"struct.std::_Rb_tree_node.338" = type { %"struct.std::_Rb_tree_node_base", %"struct.__gnu_cxx::__aligned_membuf.339" }
%"struct.__gnu_cxx::__aligned_membuf.339" = type { [80 x i8] }

; Function Attrs: mustprogress nounwind uwtable
define linkonce_odr dso_local noundef i32 @_ZSt8__memcmpIyyEiPKT_PKT0_m(ptr noundef %__first1, ptr noundef %__first2, i64 noundef %__num) #1 comdat {
entry:
  %__first1.addr = alloca ptr, align 8
  %__first2.addr = alloca ptr, align 8
  %__num.addr = alloca i64, align 8
  store ptr %__first1, ptr %__first1.addr, align 8
  store ptr %__first2, ptr %__first2.addr, align 8
  store i64 %__num, ptr %__num.addr, align 8
  %0 = load ptr, ptr %__first1.addr, align 8
  %1 = load ptr, ptr %__first2.addr, align 8
  %2 = load i64, ptr %__num.addr, align 8
  %mul = mul i64 8, %2
  %call = call i32 @memcmp(ptr noundef %0, ptr noundef %1, i64 noundef %mul) #2
  ret i32 %call
}

; Function Attrs: mustprogress uwtable
define linkonce_odr dso_local noundef zeroext i1 @_ZNSt7__equalILb1EE5equalIyEEbPKT_S4_S4_(ptr noundef %__first1, ptr noundef %__last1, ptr noundef %__first2) #3 comdat align 2 {
entry:
  %retval = alloca i1, align 1
  %__first1.addr = alloca ptr, align 8
  %__last1.addr = alloca ptr, align 8
  %__first2.addr = alloca ptr, align 8
  %__len = alloca i64, align 8
  store ptr %__first1, ptr %__first1.addr, align 8
  store ptr %__last1, ptr %__last1.addr, align 8
  store ptr %__first2, ptr %__first2.addr, align 8
  %0 = load ptr, ptr %__last1.addr, align 8
  %1 = load ptr, ptr %__first1.addr, align 8
  %sub.ptr.lhs.cast = ptrtoint ptr %0 to i64
  %sub.ptr.rhs.cast = ptrtoint ptr %1 to i64
  %sub.ptr.sub = sub i64 %sub.ptr.lhs.cast, %sub.ptr.rhs.cast
  %sub.ptr.div = sdiv exact i64 %sub.ptr.sub, 8
  store i64 %sub.ptr.div, ptr %__len, align 8
  %2 = load i64, ptr %__len, align 8
  %tobool = icmp ne i64 %2, 0
  br i1 %tobool, label %if.then, label %if.end

if.then:                                          ; preds = %entry
  %3 = load ptr, ptr %__first1.addr, align 8
  %4 = load ptr, ptr %__first2.addr, align 8
  %5 = load i64, ptr %__len, align 8
  %call = call noundef i32 @_ZSt8__memcmpIyyEiPKT_PKT0_m(ptr noundef %3, ptr noundef %4, i64 noundef %5)
  %tobool1 = icmp ne i32 %call, 0
  %lnot = xor i1 %tobool1, true
  store i1 %lnot, ptr %retval, align 1
  br label %return

if.end:                                           ; preds = %entry
  store i1 true, ptr %retval, align 1
  br label %return

return:                                           ; preds = %if.end, %if.then
  %6 = load i1, ptr %retval, align 1
  ret i1 %6
}

; Function Attrs: mustprogress uwtable
define linkonce_odr dso_local noundef zeroext i1 @_ZSt12__equal_aux1IPKyS1_EbT_S2_T0_(ptr noundef %__first1, ptr noundef %__last1, ptr noundef %__first2) #3 comdat {
entry:
  %__first1.addr = alloca ptr, align 8
  %__last1.addr = alloca ptr, align 8
  %__first2.addr = alloca ptr, align 8
  %__simple = alloca i8, align 1
  store ptr %__first1, ptr %__first1.addr, align 8
  store ptr %__last1, ptr %__last1.addr, align 8
  store ptr %__first2, ptr %__first2.addr, align 8
  store i8 1, ptr %__simple, align 1
  %0 = load ptr, ptr %__first1.addr, align 8
  %1 = load ptr, ptr %__last1.addr, align 8
  %2 = load ptr, ptr %__first2.addr, align 8
  %call = call noundef zeroext i1 @_ZNSt7__equalILb1EE5equalIyEEbPKT_S4_S4_(ptr noundef %0, ptr noundef %1, ptr noundef %2)
  ret i1 %call
}

; Function Attrs: mustprogress nounwind uwtable
define linkonce_odr dso_local noundef ptr @_ZSt12__niter_baseIPKyET_S2_(ptr noundef %__it) #1 comdat {
entry:
  %__it.addr = alloca ptr, align 8
  store ptr %__it, ptr %__it.addr, align 8
  %0 = load ptr, ptr %__it.addr, align 8
  ret ptr %0
}

; Function Attrs: mustprogress nounwind uwtable
define linkonce_odr dso_local noundef ptr @_ZNSt14__array_traitsIyLm4EE6_S_ptrERA4_Ky(ptr noundef nonnull align 8 dereferenceable(32) %__t) #1 comdat align 2 {
entry:
  %__t.addr = alloca ptr, align 8
  store ptr %__t, ptr %__t.addr, align 8
  %0 = load ptr, ptr %__t.addr, align 8
  %arraydecay = getelementptr inbounds [4 x i64], ptr %0, i64 0, i64 0
  ret ptr %arraydecay
}

; Function Attrs: mustprogress uwtable
define linkonce_odr dso_local noundef zeroext i1 @_ZSt11__equal_auxIPKyS1_EbT_S2_T0_(ptr noundef %__first1, ptr noundef %__last1, ptr noundef %__first2) #3 comdat {
entry:
  %__first1.addr = alloca ptr, align 8
  %__last1.addr = alloca ptr, align 8
  %__first2.addr = alloca ptr, align 8
  store ptr %__first1, ptr %__first1.addr, align 8
  store ptr %__last1, ptr %__last1.addr, align 8
  store ptr %__first2, ptr %__first2.addr, align 8
  %0 = load ptr, ptr %__first1.addr, align 8
  %call = call noundef ptr @_ZSt12__niter_baseIPKyET_S2_(ptr noundef %0) #2
  %1 = load ptr, ptr %__last1.addr, align 8
  %call1 = call noundef ptr @_ZSt12__niter_baseIPKyET_S2_(ptr noundef %1) #2
  %2 = load ptr, ptr %__first2.addr, align 8
  %call2 = call noundef ptr @_ZSt12__niter_baseIPKyET_S2_(ptr noundef %2) #2
  %call3 = call noundef zeroext i1 @_ZSt12__equal_aux1IPKyS1_EbT_S2_T0_(ptr noundef %call, ptr noundef %call1, ptr noundef %call2)
  ret i1 %call3
}

; Function Attrs: mustprogress nounwind uwtable
define linkonce_odr dso_local noundef ptr @_ZNKSt5arrayIyLm4EE4dataEv(ptr noundef nonnull align 8 dereferenceable(32) %this) #1 comdat align 2 {
entry:
  %this.addr = alloca ptr, align 8
  store ptr %this, ptr %this.addr, align 8
  %this1 = load ptr, ptr %this.addr, align 8
  %_M_elems = getelementptr inbounds %"struct.std::array", ptr %this1, i32 0, i32 0
  %call = call noundef ptr @_ZNSt14__array_traitsIyLm4EE6_S_ptrERA4_Ky(ptr noundef nonnull align 8 dereferenceable(32) %_M_elems) #2
  ret ptr %call
}

; Function Attrs: mustprogress uwtable
define linkonce_odr dso_local noundef zeroext i1 @_ZSt5equalIPKyS1_EbT_S2_T0_(ptr noundef %__first1, ptr noundef %__last1, ptr noundef %__first2) #3 comdat {
entry:
  %__first1.addr = alloca ptr, align 8
  %__last1.addr = alloca ptr, align 8
  %__first2.addr = alloca ptr, align 8
  store ptr %__first1, ptr %__first1.addr, align 8
  store ptr %__last1, ptr %__last1.addr, align 8
  store ptr %__first2, ptr %__first2.addr, align 8
  %0 = load ptr, ptr %__first1.addr, align 8
  %1 = load ptr, ptr %__last1.addr, align 8
  %2 = load ptr, ptr %__first2.addr, align 8
  %call = call noundef zeroext i1 @_ZSt11__equal_auxIPKyS1_EbT_S2_T0_(ptr noundef %0, ptr noundef %1, ptr noundef %2)
  ret i1 %call
}

; Function Attrs: mustprogress nounwind uwtable
define linkonce_odr dso_local noundef ptr @_ZNKSt5arrayIyLm4EE3endEv(ptr noundef nonnull align 8 dereferenceable(32) %this) #1 comdat align 2 {
entry:
  %this.addr = alloca ptr, align 8
  store ptr %this, ptr %this.addr, align 8
  %this1 = load ptr, ptr %this.addr, align 8
  %call = call noundef ptr @_ZNKSt5arrayIyLm4EE4dataEv(ptr noundef nonnull align 8 dereferenceable(32) %this1) #2
  %add.ptr = getelementptr inbounds i64, ptr %call, i64 4
  ret ptr %add.ptr
}

; Function Attrs: mustprogress nounwind uwtable
define linkonce_odr dso_local noundef ptr @_ZNKSt5arrayIyLm4EE5beginEv(ptr noundef nonnull align 8 dereferenceable(32) %this) #1 comdat align 2 {
entry:
  %this.addr = alloca ptr, align 8
  store ptr %this, ptr %this.addr, align 8
  %this1 = load ptr, ptr %this.addr, align 8
  %call = call noundef ptr @_ZNKSt5arrayIyLm4EE4dataEv(ptr noundef nonnull align 8 dereferenceable(32) %this1) #2
  ret ptr %call
}

; Function Attrs: mustprogress nounwind uwtable
define linkonce_odr hidden noundef ptr @_ZNK9__gnu_cxx16__aligned_membufISt4pairIKjN3ue210PureRepeatEEE7_M_addrEv(ptr noundef nonnull align 8 dereferenceable(80) %this) #1 comdat align 2 {
entry:
  %this.addr = alloca ptr, align 8
  store ptr %this, ptr %this.addr, align 8
  %this1 = load ptr, ptr %this.addr, align 8
  %_M_storage = getelementptr inbounds %"struct.__gnu_cxx::__aligned_membuf.339", ptr %this1, i32 0, i32 0
  ret ptr %_M_storage
}

; Function Attrs: mustprogress uwtable
define linkonce_odr dso_local noundef zeroext i1 @_ZSteqIyLm4EEbRKSt5arrayIT_XT0_EES4_(ptr noundef nonnull align 8 dereferenceable(32) %__one, ptr noundef nonnull align 8 dereferenceable(32) %__two) #3 comdat {
entry:
  %__one.addr = alloca ptr, align 8
  %__two.addr = alloca ptr, align 8
  store ptr %__one, ptr %__one.addr, align 8
  store ptr %__two, ptr %__two.addr, align 8
  %0 = load ptr, ptr %__one.addr, align 8
  %call = call noundef ptr @_ZNKSt5arrayIyLm4EE5beginEv(ptr noundef nonnull align 8 dereferenceable(32) %0) #2
  %1 = load ptr, ptr %__one.addr, align 8
  %call1 = call noundef ptr @_ZNKSt5arrayIyLm4EE3endEv(ptr noundef nonnull align 8 dereferenceable(32) %1) #2
  %2 = load ptr, ptr %__two.addr, align 8
  %call2 = call noundef ptr @_ZNKSt5arrayIyLm4EE5beginEv(ptr noundef nonnull align 8 dereferenceable(32) %2) #2
  %call3 = call noundef zeroext i1 @_ZSt5equalIPKyS1_EbT_S2_T0_(ptr noundef %call, ptr noundef %call1, ptr noundef %call2)
  ret i1 %call3
}

; Function Attrs: mustprogress nounwind uwtable
define linkonce_odr hidden noundef ptr @_ZNK9__gnu_cxx16__aligned_membufISt4pairIKjN3ue210PureRepeatEEE6_M_ptrEv(ptr noundef nonnull align 8 dereferenceable(80) %this) #1 comdat align 2 {
entry:
  %this.addr = alloca ptr, align 8
  store ptr %this, ptr %this.addr, align 8
  %this1 = load ptr, ptr %this.addr, align 8
  %call = call noundef ptr @_ZNK9__gnu_cxx16__aligned_membufISt4pairIKjN3ue210PureRepeatEEE7_M_addrEv(ptr noundef nonnull align 8 dereferenceable(80) %this1) #2
  ret ptr %call
}

; Function Attrs: mustprogress nounwind uwtable
define linkonce_odr hidden void @_ZNSt23_Rb_tree_const_iteratorISt4pairIKjN3ue210PureRepeatEEEC2EPKSt18_Rb_tree_node_base(ptr noundef nonnull align 8 dereferenceable(8) %this, ptr noundef %__x) unnamed_addr #1 comdat align 2 {
entry:
  %this.addr = alloca ptr, align 8
  %__x.addr = alloca ptr, align 8
  store ptr %this, ptr %this.addr, align 8
  store ptr %__x, ptr %__x.addr, align 8
  %this1 = load ptr, ptr %this.addr, align 8
  %_M_node = getelementptr inbounds %"struct.std::_Rb_tree_const_iterator", ptr %this1, i32 0, i32 0
  %0 = load ptr, ptr %__x.addr, align 8
  store ptr %0, ptr %_M_node, align 8
  ret void
}

; Function Attrs: mustprogress uwtable
define linkonce_odr dso_local noundef zeroext i1 @_ZStneIyLm4EEbRKSt5arrayIT_XT0_EES4_(ptr noundef nonnull align 8 dereferenceable(32) %__one, ptr noundef nonnull align 8 dereferenceable(32) %__two) #3 comdat {
entry:
  %__one.addr = alloca ptr, align 8
  %__two.addr = alloca ptr, align 8
  store ptr %__one, ptr %__one.addr, align 8
  store ptr %__two, ptr %__two.addr, align 8
  %0 = load ptr, ptr %__one.addr, align 8
  %1 = load ptr, ptr %__two.addr, align 8
  %call = call noundef zeroext i1 @_ZSteqIyLm4EEbRKSt5arrayIT_XT0_EES4_(ptr noundef nonnull align 8 dereferenceable(32) %0, ptr noundef nonnull align 8 dereferenceable(32) %1)
  %lnot = xor i1 %call, true
  ret i1 %lnot
}

; Function Attrs: noreturn nounwind uwtable
define linkonce_odr hidden void @__clang_call_terminate(ptr noundef %0) #8 comdat {
  %2 = call ptr @__cxa_begin_catch(ptr %0) #2
  call void @_ZSt9terminatev() #19
  unreachable
}

; Function Attrs: mustprogress nounwind uwtable
define linkonce_odr hidden noundef ptr @_ZNKSt13_Rb_tree_nodeISt4pairIKjN3ue210PureRepeatEEE9_M_valptrEv(ptr noundef nonnull align 8 dereferenceable(112) %this) #1 comdat align 2 {
entry:
  %this.addr = alloca ptr, align 8
  store ptr %this, ptr %this.addr, align 8
  %this1 = load ptr, ptr %this.addr, align 8
  %_M_storage = getelementptr inbounds %"struct.std::_Rb_tree_node.338", ptr %this1, i32 0, i32 1
  %call = call noundef ptr @_ZNK9__gnu_cxx16__aligned_membufISt4pairIKjN3ue210PureRepeatEEE6_M_ptrEv(ptr noundef nonnull align 8 dereferenceable(80) %_M_storage) #2
  ret ptr %call
}

; Function Attrs: mustprogress nounwind uwtable
define linkonce_odr hidden ptr @_ZNKSt8_Rb_treeIjSt4pairIKjN3ue210PureRepeatEESt10_Select1stIS4_ESt4lessIjESaIS4_EE5beginEv(ptr noundef nonnull align 8 dereferenceable(48) %this) #1 comdat align 2 {
entry:
  %retval = alloca %"struct.std::_Rb_tree_const_iterator", align 8
  %this.addr = alloca ptr, align 8
  store ptr %this, ptr %this.addr, align 8
  %this1 = load ptr, ptr %this.addr, align 8
  %_M_impl = getelementptr inbounds %"class.std::_Rb_tree", ptr %this1, i32 0, i32 0
  %add.ptr = getelementptr inbounds i8, ptr %_M_impl, i64 8
  %_M_header = getelementptr inbounds %"struct.std::_Rb_tree_header", ptr %add.ptr, i32 0, i32 0
  %_M_left = getelementptr inbounds %"struct.std::_Rb_tree_node_base", ptr %_M_header, i32 0, i32 2
  %0 = load ptr, ptr %_M_left, align 8
  call void @_ZNSt23_Rb_tree_const_iteratorISt4pairIKjN3ue210PureRepeatEEEC2EPKSt18_Rb_tree_node_base(ptr noundef nonnull align 8 dereferenceable(8) %retval, ptr noundef %0) #2
  %coerce.dive = getelementptr inbounds %"struct.std::_Rb_tree_const_iterator", ptr %retval, i32 0, i32 0
  %1 = load ptr, ptr %coerce.dive, align 8
  ret ptr %1
}

; Function Attrs: mustprogress uwtable
define linkonce_odr hidden noundef zeroext i1 @_ZNK3ue28bitfieldILm256EEneERKS1_(ptr noundef nonnull align 8 dereferenceable(32) %this, ptr noundef nonnull align 8 dereferenceable(32) %a) #3 comdat align 2 {
entry:
  %this.addr = alloca ptr, align 8
  %a.addr = alloca ptr, align 8
  store ptr %this, ptr %this.addr, align 8
  store ptr %a, ptr %a.addr, align 8
  %this1 = load ptr, ptr %this.addr, align 8
  %bits = getelementptr inbounds %"class.ue2::bitfield", ptr %this1, i32 0, i32 0
  %0 = load ptr, ptr %a.addr, align 8
  %bits2 = getelementptr inbounds %"class.ue2::bitfield", ptr %0, i32 0, i32 0
  %call = call noundef zeroext i1 @_ZStneIyLm4EEbRKSt5arrayIT_XT0_EES4_(ptr noundef nonnull align 8 dereferenceable(32) %bits, ptr noundef nonnull align 8 dereferenceable(32) %bits2)
  ret i1 %call
}

; Function Attrs: mustprogress nounwind uwtable
define linkonce_odr hidden noundef ptr @_ZNKSt23_Rb_tree_const_iteratorISt4pairIKjN3ue210PureRepeatEEEptEv(ptr noundef nonnull align 8 dereferenceable(8) %this) #1 comdat align 2 personality ptr @__gxx_personality_v0 {
entry:
  %this.addr = alloca ptr, align 8
  store ptr %this, ptr %this.addr, align 8
  %this1 = load ptr, ptr %this.addr, align 8
  %_M_node = getelementptr inbounds %"struct.std::_Rb_tree_const_iterator", ptr %this1, i32 0, i32 0
  %0 = load ptr, ptr %_M_node, align 8
  %call = invoke noundef ptr @_ZNKSt13_Rb_tree_nodeISt4pairIKjN3ue210PureRepeatEEE9_M_valptrEv(ptr noundef nonnull align 8 dereferenceable(112) %0)
          to label %invoke.cont unwind label %terminate.lpad

invoke.cont:                                      ; preds = %entry
  ret ptr %call

terminate.lpad:                                   ; preds = %entry
  %1 = landingpad { ptr, i32 }
          catch ptr null
  %2 = extractvalue { ptr, i32 } %1, 0
  call void @__clang_call_terminate(ptr %2) #19
  unreachable
}

; Function Attrs: mustprogress nounwind uwtable
define linkonce_odr hidden ptr @_ZNKSt3mapIjN3ue210PureRepeatESt4lessIjESaISt4pairIKjS1_EEE5beginEv(ptr noundef nonnull align 8 dereferenceable(48) %this) #1 comdat align 2 {
entry:
  %retval = alloca %"struct.std::_Rb_tree_const_iterator", align 8
  %this.addr = alloca ptr, align 8
  store ptr %this, ptr %this.addr, align 8
  %this1 = load ptr, ptr %this.addr, align 8
  %_M_t = getelementptr inbounds %"class.std::map", ptr %this1, i32 0, i32 0
  %call = call ptr @_ZNKSt8_Rb_treeIjSt4pairIKjN3ue210PureRepeatEESt10_Select1stIS4_ESt4lessIjESaIS4_EE5beginEv(ptr noundef nonnull align 8 dereferenceable(48) %_M_t) #2
  %coerce.dive = getelementptr inbounds %"struct.std::_Rb_tree_const_iterator", ptr %retval, i32 0, i32 0
  store ptr %call, ptr %coerce.dive, align 8
  %coerce.dive2 = getelementptr inbounds %"struct.std::_Rb_tree_const_iterator", ptr %retval, i32 0, i32 0
  %0 = load ptr, ptr %coerce.dive2, align 8
  ret ptr %0
}

; Function Attrs: mustprogress uwtable
define linkonce_odr hidden noundef zeroext i1 @_ZSteqIjN3ue210PureRepeatESt4lessIjESaISt4pairIKjS1_EEEbRKSt3mapIT_T0_T1_T2_ESF_(ptr noundef nonnull align 8 dereferenceable(48) %__x, ptr noundef nonnull align 8 dereferenceable(48) %__y) #3 comdat {
entry:
  %__x.addr = alloca ptr, align 8
  %__y.addr = alloca ptr, align 8
  store ptr %__x, ptr %__x.addr, align 8
  store ptr %__y, ptr %__y.addr, align 8
  %0 = load ptr, ptr %__x.addr, align 8
  %_M_t = getelementptr inbounds %"class.std::map", ptr %0, i32 0, i32 0
  %1 = load ptr, ptr %__y.addr, align 8
  %_M_t1 = getelementptr inbounds %"class.std::map", ptr %1, i32 0, i32 0
  %call = call noundef zeroext i1 @_ZSteqRKSt8_Rb_treeIjSt4pairIKjN3ue210PureRepeatEESt10_Select1stIS4_ESt4lessIjESaIS4_EESC_(ptr noundef nonnull align 8 dereferenceable(48) %_M_t, ptr noundef nonnull align 8 dereferenceable(48) %_M_t1)
  ret i1 %call
}

; Function Attrs: mustprogress uwtable
define linkonce_odr hidden noundef zeroext i1 @_ZNK3ue29CharReachneERKS0_(ptr noundef nonnull align 8 dereferenceable(32) %this, ptr noundef nonnull align 8 dereferenceable(32) %a) #3 comdat align 2 {
entry:
  %this.addr = alloca ptr, align 8
  %a.addr = alloca ptr, align 8
  store ptr %this, ptr %this.addr, align 8
  store ptr %a, ptr %a.addr, align 8
  %this1 = load ptr, ptr %this.addr, align 8
  %bits = getelementptr inbounds %"class.ue2::CharReach", ptr %this1, i32 0, i32 0
  %0 = load ptr, ptr %a.addr, align 8
  %bits2 = getelementptr inbounds %"class.ue2::CharReach", ptr %0, i32 0, i32 0
  %call = call noundef zeroext i1 @_ZNK3ue28bitfieldILm256EEneERKS1_(ptr noundef nonnull align 8 dereferenceable(32) %bits, ptr noundef nonnull align 8 dereferenceable(32) %bits2)
  ret i1 %call
}

; Function Attrs: mustprogress nounwind uwtable
define hidden noundef nonnull align 8 dereferenceable(32) ptr @_ZNK3ue211CastleProto5reachEv(ptr noundef nonnull align 8 dereferenceable(112) %this) #1 align 2 {
entry:
  %this.addr = alloca ptr, align 8
  %ref.tmp = alloca %"struct.std::_Rb_tree_const_iterator", align 8
  store ptr %this, ptr %this.addr, align 8
  %this1 = load ptr, ptr %this.addr, align 8
  %repeats = getelementptr inbounds %"struct.ue2::CastleProto", ptr %this1, i32 0, i32 0
  %call = call ptr @_ZNKSt3mapIjN3ue210PureRepeatESt4lessIjESaISt4pairIKjS1_EEE5beginEv(ptr noundef nonnull align 8 dereferenceable(48) %repeats) #2
  %coerce.dive = getelementptr inbounds %"struct.std::_Rb_tree_const_iterator", ptr %ref.tmp, i32 0, i32 0
  store ptr %call, ptr %coerce.dive, align 8
  %call2 = call noundef ptr @_ZNKSt23_Rb_tree_const_iteratorISt4pairIKjN3ue210PureRepeatEEEptEv(ptr noundef nonnull align 8 dereferenceable(8) %ref.tmp) #2
  %second = getelementptr inbounds %"struct.std::pair", ptr %call2, i32 0, i32 1
  %reach = getelementptr inbounds %"struct.ue2::PureRepeat", ptr %second, i32 0, i32 0
  ret ptr %reach
}

; Function Attrs: mustprogress uwtable
define hidden noundef zeroext i1 @_ZN3ue28is_equalERKNS_11CastleProtoES2_(ptr noundef nonnull align 8 dereferenceable(112) %c1, ptr noundef nonnull align 8 dereferenceable(112) %c2) #3 {
entry:
  %retval = alloca i1, align 1
  %c1.addr = alloca ptr, align 8
  %c2.addr = alloca ptr, align 8
  store ptr %c1, ptr %c1.addr, align 8
  store ptr %c2, ptr %c2.addr, align 8
  %0 = load ptr, ptr %c1.addr, align 8
  %call = call noundef nonnull align 8 dereferenceable(32) ptr @_ZNK3ue211CastleProto5reachEv(ptr noundef nonnull align 8 dereferenceable(112) %0)
  %1 = load ptr, ptr %c2.addr, align 8
  %call1 = call noundef nonnull align 8 dereferenceable(32) ptr @_ZNK3ue211CastleProto5reachEv(ptr noundef nonnull align 8 dereferenceable(112) %1)
  %call2 = call noundef zeroext i1 @_ZNK3ue29CharReachneERKS0_(ptr noundef nonnull align 8 dereferenceable(32) %call, ptr noundef nonnull align 8 dereferenceable(32) %call1)
  br i1 %call2, label %if.then, label %if.end

if.then:                                          ; preds = %entry
  br label %do.body

do.body:                                          ; preds = %if.then
  br label %do.end

do.end:                                           ; preds = %do.body
  store i1 false, ptr %retval, align 1
  br label %return

if.end:                                           ; preds = %entry
  %2 = load ptr, ptr %c1.addr, align 8
  %repeats = getelementptr inbounds %"struct.ue2::CastleProto", ptr %2, i32 0, i32 0
  %3 = load ptr, ptr %c2.addr, align 8
  %repeats3 = getelementptr inbounds %"struct.ue2::CastleProto", ptr %3, i32 0, i32 0
  %call4 = call noundef zeroext i1 @_ZSteqIjN3ue210PureRepeatESt4lessIjESaISt4pairIKjS1_EEEbRKSt3mapIT_T0_T1_T2_ESF_(ptr noundef nonnull align 8 dereferenceable(48) %repeats, ptr noundef nonnull align 8 dereferenceable(48) %repeats3)
  store i1 %call4, ptr %retval, align 1
  br label %return

return:                                           ; preds = %if.end, %do.end
  %4 = load i1, ptr %retval, align 1
  ret i1 %4
}