; Function Attrs: mustprogress uwtable
define hidden noundef zeroext i1 @_ZN3ue28is_equalERKNS_11CastleProtoES2_(ptr noundef nonnull align 8 dereferenceable(112) %c1, ptr noundef nonnull align 8 dereferenceable(112) %c2) local_unnamed_addr #2 personality ptr @__gxx_personality_v0 {
entry:
  %_M_left.i.i.i = getelementptr inbounds i8, ptr %c1, i64 24
  %0 = load ptr, ptr %_M_left.i.i.i, align 8
  %second.i = getelementptr inbounds i8, ptr %0, i64 40
  %_M_left.i.i.i3 = getelementptr inbounds i8, ptr %c2, i64 24
  %1 = load ptr, ptr %_M_left.i.i.i3, align 8
  %second.i4 = getelementptr inbounds i8, ptr %1, i64 40
  %bcmp.i.i.i.i.i.i.i.i = tail call i32 @bcmp(ptr noundef nonnull dereferenceable(32) %second.i, ptr noundef nonnull dereferenceable(32) %second.i4, i64 32)
  %tobool1.not.i.i.i.i.i.i.i.i.not = icmp eq i32 %bcmp.i.i.i.i.i.i.i.i, 0
  br i1 %tobool1.not.i.i.i.i.i.i.i.i.not, label %if.end, label %return

if.end:                                           ; preds = %entry
  %call.i = tail call noundef zeroext i1 @_ZSteqRKSt8_Rb_treeIjSt4pairIKjN3ue210PureRepeatEESt10_Select1stIS4_ESt4lessIjESaIS4_EESC_(ptr noundef nonnull align 8 dereferenceable(48) %c1, ptr noundef nonnull align 8 dereferenceable(48) %c2)
  br label %return

return:                                           ; preds = %entry, %if.end
  %retval.0 = phi i1 [ %call.i, %if.end ], [ false, %entry ]
  ret i1 %retval.0
}